target datalayout = "e-m:e-p270:32:32-p271:32:32-p272:64:64-i64:64-i128:128-f80:128-n8:16:32:64-S128"
target triple = "x86_64-pc-linux-gnu"

%struct._zval_struct = type { %union._zend_value, %union.anon, %union.anon.2 }
%union._zend_value = type { i64 }
%union.anon = type { i32 }
%union.anon.2 = type { i32 }
%struct._zend_refcounted_h = type { i32, %union.anon.3 }
%union.anon.3 = type { i32 }
%struct.php_sxe_object = type { ptr, ptr, ptr, ptr, %struct.anon.8, %struct._zval_struct, ptr, %struct._zend_object }
%struct.anon.8 = type { ptr, ptr, i32, i32, %struct._zval_struct }
%struct._zend_object = type { %struct._zend_refcounted_h, i32, ptr, ptr, ptr, [1 x %struct._zval_struct] }
%struct._xmlNode = type { ptr, i32, ptr, ptr, ptr, ptr, ptr, ptr, ptr, ptr, ptr, ptr, ptr, ptr, i16, i16 }
%struct._xmlNs = type { ptr, i32, ptr, ptr, ptr, ptr }

; Function Attrs: nounwind uwtable
define internal i32 @match_ns(ptr noundef %0, ptr noundef %1, ptr noundef %2, i32 noundef %3) #0 {
  %5 = alloca i32, align 4
  %6 = alloca ptr, align 8
  %7 = alloca ptr, align 8
  %8 = alloca ptr, align 8
  %9 = alloca i32, align 4
  store ptr %0, ptr %6, align 8
  store ptr %1, ptr %7, align 8
  store ptr %2, ptr %8, align 8
  store i32 %3, ptr %9, align 4
  %10 = load ptr, ptr %8, align 8
  %11 = icmp eq ptr %10, null
  br i1 %11, label %12, label %25

12:                                               ; preds = %4
  %13 = load ptr, ptr %7, align 8
  %14 = getelementptr inbounds %struct._xmlNode, ptr %13, i32 0, i32 9
  %15 = load ptr, ptr %14, align 8
  %16 = icmp eq ptr %15, null
  br i1 %16, label %24, label %17

17:                                               ; preds = %12
  %18 = load ptr, ptr %7, align 8
  %19 = getelementptr inbounds %struct._xmlNode, ptr %18, i32 0, i32 9
  %20 = load ptr, ptr %19, align 8
  %21 = getelementptr inbounds %struct._xmlNs, ptr %20, i32 0, i32 3
  %22 = load ptr, ptr %21, align 8
  %23 = icmp eq ptr %22, null
  br i1 %23, label %24, label %25

24:                                               ; preds = %17, %12
  store i32 1, ptr %5, align 4
  br label %52

25:                                               ; preds = %17, %4
  %26 = load ptr, ptr %7, align 8
  %27 = getelementptr inbounds %struct._xmlNode, ptr %26, i32 0, i32 9
  %28 = load ptr, ptr %27, align 8
  %29 = icmp ne ptr %28, null
  br i1 %29, label %30, label %51

30:                                               ; preds = %25
  %31 = load i32, ptr %9, align 4
  %32 = icmp ne i32 %31, 0
  br i1 %32, label %33, label %39

33:                                               ; preds = %30
  %34 = load ptr, ptr %7, align 8
  %35 = getelementptr inbounds %struct._xmlNode, ptr %34, i32 0, i32 9
  %36 = load ptr, ptr %35, align 8
  %37 = getelementptr inbounds %struct._xmlNs, ptr %36, i32 0, i32 3
  %38 = load ptr, ptr %37, align 8
  br label %45

39:                                               ; preds = %30
  %40 = load ptr, ptr %7, align 8
  %41 = getelementptr inbounds %struct._xmlNode, ptr %40, i32 0, i32 9
  %42 = load ptr, ptr %41, align 8
  %43 = getelementptr inbounds %struct._xmlNs, ptr %42, i32 0, i32 2
  %44 = load ptr, ptr %43, align 8
  br label %45

45:                                               ; preds = %39, %33
  %46 = phi ptr [ %38, %33 ], [ %44, %39 ]
  %47 = load ptr, ptr %8, align 8
  %48 = call i32 @xmlStrEqual(ptr noundef %46, ptr noundef %47)
  %49 = icmp ne i32 %48, 0
  br i1 %49, label %50, label %51

50:                                               ; preds = %45
  store i32 1, ptr %5, align 4
  br label %52

51:                                               ; preds = %45, %25
  store i32 0, ptr %5, align 4
  br label %52

52:                                               ; preds = %51, %50, %24
  %53 = load i32, ptr %5, align 4
  ret i32 %53
}

; Function Attrs: nounwind uwtable
define internal ptr @sxe_get_element_by_offset(ptr noundef %0, i64 noundef %1, ptr noundef %2, ptr noundef %3) #0 {
  %5 = alloca ptr, align 8
  %6 = alloca ptr, align 8
  %7 = alloca i64, align 8
  %8 = alloca ptr, align 8
  %9 = alloca ptr, align 8
  %10 = alloca i64, align 8
  store ptr %0, ptr %6, align 8
  store i64 %1, ptr %7, align 8
  store ptr %2, ptr %8, align 8
  store ptr %3, ptr %9, align 8
  store i64 0, ptr %10, align 8
  %11 = load ptr, ptr %6, align 8
  %12 = getelementptr inbounds %struct.php_sxe_object, ptr %11, i32 0, i32 4
  %13 = getelementptr inbounds %struct.anon.8, ptr %12, i32 0, i32 3
  %14 = load i32, ptr %13, align 4
  %15 = icmp eq i32 %14, 0
  br i1 %15, label %16, label %27

16:                                               ; preds = %4
  %17 = load i64, ptr %7, align 8
  %18 = icmp eq i64 %17, 0
  br i1 %18, label %19, label %26

19:                                               ; preds = %16
  %20 = load ptr, ptr %9, align 8
  %21 = icmp ne ptr %20, null
  br i1 %21, label %22, label %24

22:                                               ; preds = %19
  %23 = load ptr, ptr %9, align 8
  store i64 0, ptr %23, align 8
  br label %24

24:                                               ; preds = %22, %19
  %25 = load ptr, ptr %8, align 8
  store ptr %25, ptr %5, align 8
  br label %98

26:                                               ; preds = %16
  store ptr null, ptr %5, align 8
  br label %98

27:                                               ; preds = %4
  br label %28

28:                                               ; preds = %86, %27
  %29 = load ptr, ptr %8, align 8
  %30 = icmp ne ptr %29, null
  br i1 %30, label %31, label %35

31:                                               ; preds = %28
  %32 = load i64, ptr %10, align 8
  %33 = load i64, ptr %7, align 8
  %34 = icmp sle i64 %32, %33
  br label %35

35:                                               ; preds = %31, %28
  %36 = phi i1 [ false, %28 ], [ %34, %31 ]
  br i1 %36, label %37, label %90

37:                                               ; preds = %35
  %38 = load ptr, ptr %8, align 8
  %39 = getelementptr inbounds %struct._xmlNode, ptr %38, i32 0, i32 1
  %40 = load i32, ptr %39, align 8
  %41 = icmp eq i32 %40, 1
  br i1 %41, label %42, label %86

42:                                               ; preds = %37
  %43 = load ptr, ptr %6, align 8
  %44 = load ptr, ptr %8, align 8
  %45 = load ptr, ptr %6, align 8
  %46 = getelementptr inbounds %struct.php_sxe_object, ptr %45, i32 0, i32 4
  %47 = getelementptr inbounds %struct.anon.8, ptr %46, i32 0, i32 1
  %48 = load ptr, ptr %47, align 8
  %49 = load ptr, ptr %6, align 8
  %50 = getelementptr inbounds %struct.php_sxe_object, ptr %49, i32 0, i32 4
  %51 = getelementptr inbounds %struct.anon.8, ptr %50, i32 0, i32 2
  %52 = load i32, ptr %51, align 8
  %53 = call i32 @match_ns(ptr noundef %43, ptr noundef %44, ptr noundef %48, i32 noundef %52)
  %54 = icmp ne i32 %53, 0
  br i1 %54, label %55, label %86

55:                                               ; preds = %42
  %56 = load ptr, ptr %6, align 8
  %57 = getelementptr inbounds %struct.php_sxe_object, ptr %56, i32 0, i32 4
  %58 = getelementptr inbounds %struct.anon.8, ptr %57, i32 0, i32 3
  %59 = load i32, ptr %58, align 4
  %60 = icmp eq i32 %59, 2
  br i1 %60, label %77, label %61

61:                                               ; preds = %55
  %62 = load ptr, ptr %6, align 8
  %63 = getelementptr inbounds %struct.php_sxe_object, ptr %62, i32 0, i32 4
  %64 = getelementptr inbounds %struct.anon.8, ptr %63, i32 0, i32 3
  %65 = load i32, ptr %64, align 4
  %66 = icmp eq i32 %65, 1
  br i1 %66, label %67, label %85

67:                                               ; preds = %61
  %68 = load ptr, ptr %8, align 8
  %69 = getelementptr inbounds %struct._xmlNode, ptr %68, i32 0, i32 2
  %70 = load ptr, ptr %69, align 8
  %71 = load ptr, ptr %6, align 8
  %72 = getelementptr inbounds %struct.php_sxe_object, ptr %71, i32 0, i32 4
  %73 = getelementptr inbounds %struct.anon.8, ptr %72, i32 0, i32 0
  %74 = load ptr, ptr %73, align 8
  %75 = call i32 @xmlStrEqual(ptr noundef %70, ptr noundef %74)
  %76 = icmp ne i32 %75, 0
  br i1 %76, label %77, label %85

77:                                               ; preds = %67, %55
  %78 = load i64, ptr %10, align 8
  %79 = load i64, ptr %7, align 8
  %80 = icmp eq i64 %78, %79
  br i1 %80, label %81, label %82

81:                                               ; preds = %77
  br label %90

82:                                               ; preds = %77
  %83 = load i64, ptr %10, align 8
  %84 = add nsw i64 %83, 1
  store i64 %84, ptr %10, align 8
  br label %85

85:                                               ; preds = %82, %67, %61
  br label %86

86:                                               ; preds = %85, %42, %37
  %87 = load ptr, ptr %8, align 8
  %88 = getelementptr inbounds %struct._xmlNode, ptr %87, i32 0, i32 6
  %89 = load ptr, ptr %88, align 8
  store ptr %89, ptr %8, align 8
  br label %28

90:                                               ; preds = %81, %35
  %91 = load ptr, ptr %9, align 8
  %92 = icmp ne ptr %91, null
  br i1 %92, label %93, label %96

93:                                               ; preds = %90
  %94 = load i64, ptr %10, align 8
  %95 = load ptr, ptr %9, align 8
  store i64 %94, ptr %95, align 8
  br label %96

96:                                               ; preds = %93, %90
  %97 = load ptr, ptr %8, align 8
  store ptr %97, ptr %5, align 8
  br label %98

98:                                               ; preds = %96, %26, %24
  %99 = load ptr, ptr %5, align 8
  ret ptr %99
}