; Function Attrs: nounwind uwtable
define internal fastcc ptr @sxe_get_element_by_offset(ptr nocapture noundef readonly %0, i64 noundef %1, ptr noundef readonly %2, ptr noundef writeonly %3) unnamed_addr #1 {
  %5 = getelementptr inbounds i8, ptr %0, i64 32
  %6 = getelementptr inbounds i8, ptr %0, i64 52
  %7 = load i32, ptr %6, align 4
  %8 = icmp eq i32 %7, 0
  br i1 %8, label %14, label %.preheader

.preheader:                                       ; preds = %4
  %9 = icmp ne ptr %2, null
  %10 = icmp sgt i64 %1, -1
  %11 = and i1 %9, %10
  br i1 %11, label %.lr.ph, label %._crit_edge

.lr.ph:                                           ; preds = %.preheader
  %12 = getelementptr inbounds i8, ptr %0, i64 40
  %13 = getelementptr inbounds i8, ptr %0, i64 48
  br label %17

14:                                               ; preds = %4
  %15 = icmp eq i64 %1, 0
  br i1 %15, label %16, label %52

16:                                               ; preds = %14
  %.not33 = icmp eq ptr %3, null
  br i1 %.not33, label %52, label %.sink.split

17:                                               ; preds = %.lr.ph, %match_ns.exit
  %.037 = phi i64 [ 0, %.lr.ph ], [ %.1, %match_ns.exit ]
  %.02636 = phi ptr [ %2, %.lr.ph ], [ %48, %match_ns.exit ]
  %18 = getelementptr inbounds i8, ptr %.02636, i64 8
  %19 = load i32, ptr %18, align 8
  %20 = icmp eq i32 %19, 1
  br i1 %20, label %21, label %match_ns.exit

21:                                               ; preds = %17
  %22 = load ptr, ptr %12, align 8
  %23 = load i32, ptr %13, align 8
  %24 = icmp eq ptr %22, null
  %25 = getelementptr inbounds i8, ptr %.02636, i64 72
  %26 = load ptr, ptr %25, align 8
  %27 = icmp eq ptr %26, null
  br i1 %24, label %28, label %33

28:                                               ; preds = %21
  br i1 %27, label %36, label %29

29:                                               ; preds = %28
  %30 = getelementptr inbounds i8, ptr %26, i64 24
  %31 = load ptr, ptr %30, align 8
  %32 = icmp eq ptr %31, null
  br i1 %32, label %36, label %.thread.i

33:                                               ; preds = %21
  br i1 %27, label %match_ns.exit, label %.thread.i

.thread.i:                                        ; preds = %33, %29
  %.not10.i = icmp eq i32 %23, 0
  %.in.v.i = select i1 %.not10.i, i64 16, i64 24
  %.in.i = getelementptr inbounds i8, ptr %26, i64 %.in.v.i
  %34 = load ptr, ptr %.in.i, align 8
  %35 = tail call i32 @xmlStrEqual(ptr noundef %34, ptr noundef %22) #14
  %.not11.i = icmp eq i32 %35, 0
  br i1 %.not11.i, label %match_ns.exit, label %36

36:                                               ; preds = %29, %28, %.thread.i
  %37 = load i32, ptr %6, align 4
  switch i32 %37, label %match_ns.exit [
    i32 2, label %43
    i32 1, label %38
  ]

38:                                               ; preds = %36
  %39 = getelementptr inbounds i8, ptr %.02636, i64 16
  %40 = load ptr, ptr %39, align 8
  %41 = load ptr, ptr %5, align 8
  %42 = tail call i32 @xmlStrEqual(ptr noundef %40, ptr noundef %41) #14
  %.not31 = icmp eq i32 %42, 0
  br i1 %.not31, label %match_ns.exit, label %43

43:                                               ; preds = %36, %38
  %44 = icmp eq i64 %.037, %1
  br i1 %44, label %._crit_edge, label %45

45:                                               ; preds = %43
  %46 = add nsw i64 %.037, 1
  br label %match_ns.exit

match_ns.exit:                                    ; preds = %.thread.i, %33, %36, %38, %45, %17
  %.1 = phi i64 [ %46, %45 ], [ %.037, %38 ], [ %.037, %17 ], [ %.037, %36 ], [ %.037, %33 ], [ %.037, %.thread.i ]
  %47 = getelementptr inbounds i8, ptr %.02636, i64 48
  %48 = load ptr, ptr %47, align 8
  %49 = icmp ne ptr %48, null
  %50 = icmp sle i64 %.1, %1
  %51 = select i1 %49, i1 %50, i1 false
  br i1 %51, label %17, label %._crit_edge

._crit_edge:                                      ; preds = %match_ns.exit, %43, %.preheader
  %.026.lcssa = phi ptr [ %2, %.preheader ], [ %.02636, %43 ], [ %48, %match_ns.exit ]
  %.0.lcssa = phi i64 [ 0, %.preheader ], [ %1, %43 ], [ %.1, %match_ns.exit ]
  %.not32 = icmp eq ptr %3, null
  br i1 %.not32, label %52, label %.sink.split

.sink.split:                                      ; preds = %._crit_edge, %16
  %.0.lcssa.sink = phi i64 [ 0, %16 ], [ %.0.lcssa, %._crit_edge ]
  %.025.ph = phi ptr [ %2, %16 ], [ %.026.lcssa, %._crit_edge ]
  store i64 %.0.lcssa.sink, ptr %3, align 8
  br label %52

52:                                               ; preds = %.sink.split, %._crit_edge, %14, %16
  %.025 = phi ptr [ %2, %16 ], [ null, %14 ], [ %.026.lcssa, %._crit_edge ], [ %.025.ph, %.sink.split ]
  ret ptr %.025
}